target datalayout = "e-m:e-p270:32:32-p271:32:32-p272:64:64-i64:64-i128:128-f80:128-n8:16:32:64-S128"
target triple = "x86_64-pc-linux-gnu"

@.str.13 = private unnamed_addr constant [2 x i8] c",\00", align 1
@.str.14 = private unnamed_addr constant [5 x i8] c"None\00", align 1
@.str.29 = private unnamed_addr constant [12 x i8] c"SchedSubmit\00", align 1
@.str.30 = private unnamed_addr constant [10 x i8] c"SchedMain\00", align 1
@.str.31 = private unnamed_addr constant [14 x i8] c"SchedBackfill\00", align 1
@.str.33 = private unnamed_addr constant [47 x i8] c"We need a server job flags string to translate\00", align 1
@.str.34 = private unnamed_addr constant [24 x i8] c"%s: Invalid job flag %s\00", align 1
@__func__.str_2_job_flags = private unnamed_addr constant [16 x i8] c"str_2_job_flags\00", align 1
@.str.215 = private unnamed_addr constant [14 x i8] c"StartReceived\00", align 1

; Function Attrs: nounwind uwtable
define internal i32 @_str_2_job_flags(ptr noundef %0) #0 {
  %2 = alloca i32, align 4
  %3 = alloca ptr, align 8
  store ptr %0, ptr %3, align 8
  %4 = load ptr, ptr %3, align 8
  %5 = call ptr @xstrcasestr(ptr noundef %4, ptr noundef @.str.14)
  %6 = icmp ne ptr %5, null
  br i1 %6, label %7, label %8

7:                                                ; preds = %1
  store i32 0, ptr %2, align 4
  br label %29

8:                                                ; preds = %1
  %9 = load ptr, ptr %3, align 8
  %10 = call ptr @xstrcasestr(ptr noundef %9, ptr noundef @.str.29)
  %11 = icmp ne ptr %10, null
  br i1 %11, label %12, label %13

12:                                               ; preds = %8
  store i32 2, ptr %2, align 4
  br label %29

13:                                               ; preds = %8
  %14 = load ptr, ptr %3, align 8
  %15 = call ptr @xstrcasestr(ptr noundef %14, ptr noundef @.str.30)
  %16 = icmp ne ptr %15, null
  br i1 %16, label %17, label %18

17:                                               ; preds = %13
  store i32 4, ptr %2, align 4
  br label %29

18:                                               ; preds = %13
  %19 = load ptr, ptr %3, align 8
  %20 = call ptr @xstrcasestr(ptr noundef %19, ptr noundef @.str.31)
  %21 = icmp ne ptr %20, null
  br i1 %21, label %22, label %23

22:                                               ; preds = %18
  store i32 8, ptr %2, align 4
  br label %29

23:                                               ; preds = %18
  %24 = load ptr, ptr %3, align 8
  %25 = call ptr @xstrcasestr(ptr noundef %24, ptr noundef @.str.215)
  %26 = icmp ne ptr %25, null
  br i1 %26, label %27, label %28

27:                                               ; preds = %23
  store i32 16, ptr %2, align 4
  br label %29

28:                                               ; preds = %23
  store i32 1, ptr %2, align 4
  br label %29

29:                                               ; preds = %28, %27, %22, %17, %12, %7
  %30 = load i32, ptr %2, align 4
  ret i32 %30
}

; Function Attrs: nounwind uwtable
define dso_local i32 @str_2_job_flags(ptr noundef %0) #0 {
  %2 = alloca i32, align 4
  %3 = alloca ptr, align 8
  %4 = alloca i32, align 4
  %5 = alloca ptr, align 8
  %6 = alloca ptr, align 8
  %7 = alloca ptr, align 8
  %8 = alloca i32, align 4
  store ptr %0, ptr %3, align 8
  call void @llvm.lifetime.start.p0(i64 4, ptr %4) #10
  store i32 0, ptr %4, align 4
  call void @llvm.lifetime.start.p0(i64 8, ptr %5) #10
  call void @llvm.lifetime.start.p0(i64 8, ptr %6) #10
  call void @llvm.lifetime.start.p0(i64 8, ptr %7) #10
  store ptr null, ptr %7, align 8
  %9 = load ptr, ptr %3, align 8
  %10 = icmp ne ptr %9, null
  br i1 %10, label %13, label %11

11:                                               ; preds = %1
  %12 = call i32 (ptr, ...) @error(ptr noundef @.str.33)
  store i32 0, ptr %2, align 4
  store i32 1, ptr %8, align 4
  br label %37

13:                                               ; preds = %1
  %14 = load ptr, ptr %3, align 8
  %15 = call ptr @xstrdup(ptr noundef %14)
  store ptr %15, ptr %6, align 8
  %16 = load ptr, ptr %6, align 8
  %17 = call ptr @strtok_r(ptr noundef %16, ptr noundef @.str.13, ptr noundef %7) #10
  store ptr %17, ptr %5, align 8
  br label %18

18:                                               ; preds = %33, %13
  %19 = load ptr, ptr %5, align 8
  %20 = icmp ne ptr %19, null
  br i1 %20, label %21, label %35

21:                                               ; preds = %18
  %22 = load ptr, ptr %5, align 8
  %23 = call i32 @_str_2_job_flags(ptr noundef %22)
  %24 = load i32, ptr %4, align 4
  %25 = or i32 %24, %23
  store i32 %25, ptr %4, align 4
  %26 = load i32, ptr %4, align 4
  %27 = zext i32 %26 to i64
  %28 = and i64 %27, 1
  %29 = icmp ne i64 %28, 0
  br i1 %29, label %30, label %33

30:                                               ; preds = %21
  %31 = load ptr, ptr %5, align 8
  %32 = call i32 (ptr, ...) @error(ptr noundef @.str.34, ptr noundef @__func__.str_2_job_flags, ptr noundef %31)
  call void @slurm_xfree(ptr noundef %6)
  store i32 1, ptr %2, align 4
  store i32 1, ptr %8, align 4
  br label %37

33:                                               ; preds = %21
  %34 = call ptr @strtok_r(ptr noundef null, ptr noundef @.str.13, ptr noundef %7) #10
  store ptr %34, ptr %5, align 8
  br label %18, !llvm.loop !25

35:                                               ; preds = %18
  call void @slurm_xfree(ptr noundef %6)
  %36 = load i32, ptr %4, align 4
  store i32 %36, ptr %2, align 4
  store i32 1, ptr %8, align 4
  br label %37

37:                                               ; preds = %35, %30, %11
  call void @llvm.lifetime.end.p0(i64 8, ptr %7) #10
  call void @llvm.lifetime.end.p0(i64 8, ptr %6) #10
  call void @llvm.lifetime.end.p0(i64 8, ptr %5) #10
  call void @llvm.lifetime.end.p0(i64 4, ptr %4) #10
  %38 = load i32, ptr %2, align 4
  ret i32 %38
}