; Function Attrs: nounwind uwtable
define dso_local range(i32 0, 32) i32 @str_2_job_flags(ptr noundef %0) local_unnamed_addr #0 {
  %2 = alloca ptr, align 8
  %3 = alloca ptr, align 8
  call void @llvm.lifetime.start.p0(i64 8, ptr nonnull %2) #19
  call void @llvm.lifetime.start.p0(i64 8, ptr nonnull %3) #19
  store ptr null, ptr %3, align 8
  %.not = icmp eq ptr %0, null
  br i1 %.not, label %4, label %6

4:                                                ; preds = %1
  %5 = tail call i32 (ptr, ...) @error(ptr noundef nonnull @.str.33) #19
  br label %24

6:                                                ; preds = %1
  %7 = tail call ptr @xstrdup(ptr noundef nonnull %0) #19
  store ptr %7, ptr %2, align 8
  %8 = call ptr @strtok_r(ptr noundef %7, ptr noundef nonnull @.str.13, ptr noundef nonnull %3) #19
  %.not1115 = icmp eq ptr %8, null
  br i1 %.not1115, label %._crit_edge, label %.lr.ph

.lr.ph:                                           ; preds = %6, %22
  %.017 = phi ptr [ %23, %22 ], [ %8, %6 ]
  %.0816 = phi i32 [ %18, %22 ], [ 0, %6 ]
  %9 = call ptr @xstrcasestr(ptr noundef nonnull %.017, ptr noundef nonnull @.str.14) #19
  %.not.i = icmp eq ptr %9, null
  br i1 %.not.i, label %10, label %_str_2_job_flags.exit

10:                                               ; preds = %.lr.ph
  %11 = call ptr @xstrcasestr(ptr noundef nonnull %.017, ptr noundef nonnull @.str.29) #19
  %.not5.i = icmp eq ptr %11, null
  br i1 %.not5.i, label %12, label %_str_2_job_flags.exit

12:                                               ; preds = %10
  %13 = call ptr @xstrcasestr(ptr noundef nonnull %.017, ptr noundef nonnull @.str.30) #19
  %.not6.i = icmp eq ptr %13, null
  br i1 %.not6.i, label %14, label %_str_2_job_flags.exit

14:                                               ; preds = %12
  %15 = call ptr @xstrcasestr(ptr noundef nonnull %.017, ptr noundef nonnull @.str.31) #19
  %.not7.i = icmp eq ptr %15, null
  br i1 %.not7.i, label %16, label %_str_2_job_flags.exit

16:                                               ; preds = %14
  %17 = call ptr @xstrcasestr(ptr noundef nonnull %.017, ptr noundef nonnull @.str.215) #19
  %.not8.i = icmp eq ptr %17, null
  %..i = select i1 %.not8.i, i32 1, i32 16
  br label %_str_2_job_flags.exit

_str_2_job_flags.exit:                            ; preds = %.lr.ph, %10, %12, %14, %16
  %.0.i = phi i32 [ 0, %.lr.ph ], [ 2, %10 ], [ 4, %12 ], [ 8, %14 ], [ %..i, %16 ]
  %18 = or i32 %.0.i, %.0816
  %19 = and i32 %18, 1
  %.not12 = icmp eq i32 %19, 0
  br i1 %.not12, label %22, label %20

20:                                               ; preds = %_str_2_job_flags.exit
  %21 = call i32 (ptr, ...) @error(ptr noundef nonnull @.str.34, ptr noundef nonnull @__func__.str_2_job_flags, ptr noundef nonnull %.017) #19
  call void @slurm_xfree(ptr noundef nonnull %2) #19
  br label %24

22:                                               ; preds = %_str_2_job_flags.exit
  %23 = call ptr @strtok_r(ptr noundef null, ptr noundef nonnull @.str.13, ptr noundef nonnull %3) #19
  %.not11 = icmp eq ptr %23, null
  br i1 %.not11, label %._crit_edge, label %.lr.ph, !llvm.loop !21

._crit_edge:                                      ; preds = %22, %6
  %.08.lcssa = phi i32 [ 0, %6 ], [ %18, %22 ]
  call void @slurm_xfree(ptr noundef nonnull %2) #19
  br label %24

24:                                               ; preds = %._crit_edge, %20, %4
  %.09 = phi i32 [ 1, %20 ], [ %.08.lcssa, %._crit_edge ], [ 0, %4 ]
  call void @llvm.lifetime.end.p0(i64 8, ptr nonnull %3) #19
  call void @llvm.lifetime.end.p0(i64 8, ptr nonnull %2) #19
  ret i32 %.09
}